; Function Attrs: nounwind uwtable
define internal ptr @addressof(ptr noundef readonly captures(none) %0, ptr noundef %1) #0 {
  %3 = getelementptr i8, ptr %0, i64 32
  %.val = load ptr, ptr %3, align 8, !tbaa !56
  %4 = getelementptr inbounds nuw i8, ptr %.val, i64 96
  %5 = load ptr, ptr %4, align 8, !tbaa !75
  %6 = getelementptr i8, ptr %1, i64 8
  %.val6 = load ptr, ptr %6, align 8, !tbaa !30
  %.not.i = icmp eq ptr %.val6, %5
  br i1 %.not.i, label %PyObject_TypeCheck.exit.thread, label %PyObject_TypeCheck.exit

PyObject_TypeCheck.exit:                          ; preds = %2
  %7 = tail call i32 @PyType_IsSubtype(ptr noundef %.val6, ptr noundef %5) #10
  %.not8 = icmp eq i32 %7, 0
  br i1 %.not8, label %8, label %PyObject_TypeCheck.exit.thread

8:                                                ; preds = %PyObject_TypeCheck.exit
  %9 = load ptr, ptr @PyExc_TypeError, align 8, !tbaa !3
  tail call void @PyErr_SetString(ptr noundef %9, ptr noundef nonnull @.str.81) #10
  br label %16

PyObject_TypeCheck.exit.thread:                   ; preds = %2, %PyObject_TypeCheck.exit
  %10 = tail call i32 (ptr, ptr, ...) @PySys_Audit(ptr noundef nonnull @.str.82, ptr noundef nonnull @.str.83, ptr noundef nonnull %1) #10
  %11 = icmp slt i32 %10, 0
  br i1 %11, label %16, label %12

12:                                               ; preds = %PyObject_TypeCheck.exit.thread
  %13 = getelementptr inbounds nuw i8, ptr %1, i64 16
  %14 = load ptr, ptr %13, align 16, !tbaa !72
  %15 = tail call ptr @PyLong_FromVoidPtr(ptr noundef %14) #10
  br label %16

16:                                               ; preds = %PyObject_TypeCheck.exit.thread, %12, %8
  %.0 = phi ptr [ %15, %12 ], [ null, %8 ], [ null, %PyObject_TypeCheck.exit.thread ]
  ret ptr %.0
}